
test.out:     file format elf64-x86-64


Disassembly of section .init:

0000000000600000 <_init>:
  600000:	48 83 ec 08          	sub    $0x8,%rsp
  600004:	48 8b 05 dd 0f 40 00 	mov    0x400fdd(%rip),%rax        # a00fe8 <__gmon_start__>
  60000b:	48 85 c0             	test   %rax,%rax
  60000e:	74 02                	je     600012 <_init+0x12>
  600010:	ff d0                	callq  *%rax
  600012:	48 83 c4 08          	add    $0x8,%rsp
  600016:	c3                   	retq   

Disassembly of section .plt:

0000000000600020 <.plt>:
  600020:	ff 35 e2 0f 40 00    	pushq  0x400fe2(%rip)        # a01008 <_GLOBAL_OFFSET_TABLE_+0x8>
  600026:	ff 25 e4 0f 40 00    	jmpq   *0x400fe4(%rip)        # a01010 <_GLOBAL_OFFSET_TABLE_+0x10>
  60002c:	0f 1f 40 00          	nopl   0x0(%rax)

0000000000600030 <printf@plt>:
  600030:	ff 25 e2 0f 40 00    	jmpq   *0x400fe2(%rip)        # a01018 <printf@GLIBC_2.2.5>
  600036:	68 00 00 00 00       	pushq  $0x0
  60003b:	e9 e0 ff ff ff       	jmpq   600020 <.plt>

Disassembly of section .plt.got:

0000000000600040 <__cxa_finalize@plt>:
  600040:	ff 25 b2 0f 40 00    	jmpq   *0x400fb2(%rip)        # a00ff8 <__cxa_finalize@GLIBC_2.2.5>
  600046:	66 90                	xchg   %ax,%ax

Disassembly of section .text:

0000000000600050 <_start>:
  600050:	31 ed                	xor    %ebp,%ebp
  600052:	49 89 d1             	mov    %rdx,%r9
  600055:	5e                   	pop    %rsi
  600056:	48 89 e2             	mov    %rsp,%rdx
  600059:	48 83 e4 f0          	and    $0xfffffffffffffff0,%rsp
  60005d:	50                   	push   %rax
  60005e:	54                   	push   %rsp
  60005f:	4c 8d 05 9a 02 00 00 	lea    0x29a(%rip),%r8        # 600300 <__libc_csu_fini>
  600066:	48 8d 0d 23 02 00 00 	lea    0x223(%rip),%rcx        # 600290 <__libc_csu_init>
  60006d:	48 8d 3d f5 01 00 00 	lea    0x1f5(%rip),%rdi        # 600269 <main>
  600074:	ff 15 66 0f 40 00    	callq  *0x400f66(%rip)        # a00fe0 <__libc_start_main@GLIBC_2.2.5>
  60007a:	f4                   	hlt    
  60007b:	0f 1f 44 00 00       	nopl   0x0(%rax,%rax,1)

0000000000600080 <deregister_tm_clones>:
  600080:	48 8d 3d a9 0f 40 00 	lea    0x400fa9(%rip),%rdi        # a01030 <__TMC_END__>
  600087:	55                   	push   %rbp
  600088:	48 8d 05 a1 0f 40 00 	lea    0x400fa1(%rip),%rax        # a01030 <__TMC_END__>
  60008f:	48 39 f8             	cmp    %rdi,%rax
  600092:	48 89 e5             	mov    %rsp,%rbp
  600095:	74 19                	je     6000b0 <deregister_tm_clones+0x30>
  600097:	48 8b 05 3a 0f 40 00 	mov    0x400f3a(%rip),%rax        # a00fd8 <_ITM_deregisterTMCloneTable>
  60009e:	48 85 c0             	test   %rax,%rax
  6000a1:	74 0d                	je     6000b0 <deregister_tm_clones+0x30>
  6000a3:	5d                   	pop    %rbp
  6000a4:	ff e0                	jmpq   *%rax
  6000a6:	66 2e 0f 1f 84 00 00 	nopw   %cs:0x0(%rax,%rax,1)
  6000ad:	00 00 00 
  6000b0:	5d                   	pop    %rbp
  6000b1:	c3                   	retq   
  6000b2:	0f 1f 40 00          	nopl   0x0(%rax)
  6000b6:	66 2e 0f 1f 84 00 00 	nopw   %cs:0x0(%rax,%rax,1)
  6000bd:	00 00 00 

00000000006000c0 <register_tm_clones>:
  6000c0:	48 8d 3d 69 0f 40 00 	lea    0x400f69(%rip),%rdi        # a01030 <__TMC_END__>
  6000c7:	48 8d 35 62 0f 40 00 	lea    0x400f62(%rip),%rsi        # a01030 <__TMC_END__>
  6000ce:	55                   	push   %rbp
  6000cf:	48 29 fe             	sub    %rdi,%rsi
  6000d2:	48 89 e5             	mov    %rsp,%rbp
  6000d5:	48 c1 fe 03          	sar    $0x3,%rsi
  6000d9:	48 89 f0             	mov    %rsi,%rax
  6000dc:	48 c1 e8 3f          	shr    $0x3f,%rax
  6000e0:	48 01 c6             	add    %rax,%rsi
  6000e3:	48 d1 fe             	sar    %rsi
  6000e6:	74 18                	je     600100 <register_tm_clones+0x40>
  6000e8:	48 8b 05 01 0f 40 00 	mov    0x400f01(%rip),%rax        # a00ff0 <_ITM_registerTMCloneTable>
  6000ef:	48 85 c0             	test   %rax,%rax
  6000f2:	74 0c                	je     600100 <register_tm_clones+0x40>
  6000f4:	5d                   	pop    %rbp
  6000f5:	ff e0                	jmpq   *%rax
  6000f7:	66 0f 1f 84 00 00 00 	nopw   0x0(%rax,%rax,1)
  6000fe:	00 00 
  600100:	5d                   	pop    %rbp
  600101:	c3                   	retq   
  600102:	0f 1f 40 00          	nopl   0x0(%rax)
  600106:	66 2e 0f 1f 84 00 00 	nopw   %cs:0x0(%rax,%rax,1)
  60010d:	00 00 00 

0000000000600110 <__do_global_dtors_aux>:
  600110:	80 3d 19 0f 40 00 00 	cmpb   $0x0,0x400f19(%rip)        # a01030 <__TMC_END__>
  600117:	75 2f                	jne    600148 <__do_global_dtors_aux+0x38>
  600119:	48 83 3d d7 0e 40 00 	cmpq   $0x0,0x400ed7(%rip)        # a00ff8 <__cxa_finalize@GLIBC_2.2.5>
  600120:	00 
  600121:	55                   	push   %rbp
  600122:	48 89 e5             	mov    %rsp,%rbp
  600125:	74 0c                	je     600133 <__do_global_dtors_aux+0x23>
  600127:	48 8b 3d fa 0e 40 00 	mov    0x400efa(%rip),%rdi        # a01028 <__dso_handle>
  60012e:	e8 0d ff ff ff       	callq  600040 <__cxa_finalize@plt>
  600133:	e8 48 ff ff ff       	callq  600080 <deregister_tm_clones>
  600138:	c6 05 f1 0e 40 00 01 	movb   $0x1,0x400ef1(%rip)        # a01030 <__TMC_END__>
  60013f:	5d                   	pop    %rbp
  600140:	c3                   	retq   
  600141:	0f 1f 80 00 00 00 00 	nopl   0x0(%rax)
  600148:	f3 c3                	repz retq 
  60014a:	66 0f 1f 44 00 00    	nopw   0x0(%rax,%rax,1)

0000000000600150 <frame_dummy>:
  600150:	55                   	push   %rbp
  600151:	48 89 e5             	mov    %rsp,%rbp
  600154:	5d                   	pop    %rbp
  600155:	e9 66 ff ff ff       	jmpq   6000c0 <register_tm_clones>

000000000060015a <offset_to_ptr>:
  60015a:	55                   	push   %rbp
  60015b:	48 89 e5             	mov    %rsp,%rbp
  60015e:	48 83 ec 10          	sub    $0x10,%rsp
  600162:	48 89 7d f8          	mov    %rdi,-0x8(%rbp)
  600166:	48 8b 45 f8          	mov    -0x8(%rbp),%rax
  60016a:	8b 00                	mov    (%rax),%eax
  60016c:	48 63 d0             	movslq %eax,%rdx
  60016f:	48 8b 45 f8          	mov    -0x8(%rbp),%rax
  600173:	48 01 d0             	add    %rdx,%rax
  600176:	48 89 c1             	mov    %rax,%rcx
  600179:	48 8b 45 f8          	mov    -0x8(%rbp),%rax
  60017d:	8b 10                	mov    (%rax),%edx
  60017f:	48 8b 45 f8          	mov    -0x8(%rbp),%rax
  600183:	48 89 c6             	mov    %rax,%rsi
  600186:	48 8d 3d e8 fe 1f 00 	lea    0x1ffee8(%rip),%rdi        # 800075 <_IO_stdin_used+0x75>
  60018d:	b8 00 00 00 00       	mov    $0x0,%eax
  600192:	e8 99 fe ff ff       	callq  600030 <printf@plt>
  600197:	48 8b 45 f8          	mov    -0x8(%rbp),%rax
  60019b:	8b 00                	mov    (%rax),%eax
  60019d:	48 63 d0             	movslq %eax,%rdx
  6001a0:	48 8b 45 f8          	mov    -0x8(%rbp),%rax
  6001a4:	48 01 d0             	add    %rdx,%rax
  6001a7:	c9                   	leaveq 
  6001a8:	c3                   	retq   

00000000006001a9 <initcall_from_entry>:
  6001a9:	55                   	push   %rbp
  6001aa:	48 89 e5             	mov    %rsp,%rbp
  6001ad:	48 83 ec 10          	sub    $0x10,%rsp
  6001b1:	48 89 7d f8          	mov    %rdi,-0x8(%rbp)
  6001b5:	48 8b 45 f8          	mov    -0x8(%rbp),%rax
  6001b9:	48 89 c7             	mov    %rax,%rdi
  6001bc:	e8 99 ff ff ff       	callq  60015a <offset_to_ptr>
  6001c1:	c9                   	leaveq 
  6001c2:	c3                   	retq   

00000000006001c3 <initcall_blacklisted>:
  6001c3:	55                   	push   %rbp
  6001c4:	48 89 e5             	mov    %rsp,%rbp
  6001c7:	48 89 7d f8          	mov    %rdi,-0x8(%rbp)
  6001cb:	b8 00 00 00 00       	mov    $0x0,%eax
  6001d0:	5d                   	pop    %rbp
  6001d1:	c3                   	retq   

00000000006001d2 <do_one_initcall>:
  6001d2:	55                   	push   %rbp
  6001d3:	48 89 e5             	mov    %rsp,%rbp
  6001d6:	48 83 ec 20          	sub    $0x20,%rsp
  6001da:	48 89 7d e8          	mov    %rdi,-0x18(%rbp)
  6001de:	48 8b 45 e8          	mov    -0x18(%rbp),%rax
  6001e2:	48 89 c7             	mov    %rax,%rdi
  6001e5:	e8 d9 ff ff ff       	callq  6001c3 <initcall_blacklisted>
  6001ea:	84 c0                	test   %al,%al
  6001ec:	74 07                	je     6001f5 <do_one_initcall+0x23>
  6001ee:	b8 ff ff ff ff       	mov    $0xffffffff,%eax
  6001f3:	eb 0c                	jmp    600201 <do_one_initcall+0x2f>
  6001f5:	48 8b 45 e8          	mov    -0x18(%rbp),%rax
  6001f9:	ff d0                	callq  *%rax
  6001fb:	89 45 fc             	mov    %eax,-0x4(%rbp)
  6001fe:	8b 45 fc             	mov    -0x4(%rbp),%eax
  600201:	c9                   	leaveq 
  600202:	c3                   	retq   

0000000000600203 <do_initcall_level>:
  600203:	55                   	push   %rbp
  600204:	48 89 e5             	mov    %rsp,%rbp
  600207:	48 83 ec 20          	sub    $0x20,%rsp
  60020b:	89 7d ec             	mov    %edi,-0x14(%rbp)
  60020e:	8b 45 ec             	mov    -0x14(%rbp),%eax
  600211:	48 98                	cltq   
  600213:	48 8d 14 c5 00 00 00 	lea    0x0(,%rax,8),%rdx
  60021a:	00 
  60021b:	48 8d 05 5e 11 80 00 	lea    0x80115e(%rip),%rax        # e01380 <initcall_levels>
  600222:	48 8b 04 02          	mov    (%rdx,%rax,1),%rax
  600226:	48 89 45 f8          	mov    %rax,-0x8(%rbp)
  60022a:	eb 19                	jmp    600245 <do_initcall_level+0x42>
  60022c:	48 8b 45 f8          	mov    -0x8(%rbp),%rax
  600230:	48 89 c7             	mov    %rax,%rdi
  600233:	e8 71 ff ff ff       	callq  6001a9 <initcall_from_entry>
  600238:	48 89 c7             	mov    %rax,%rdi
  60023b:	e8 92 ff ff ff       	callq  6001d2 <do_one_initcall>
  600240:	48 83 45 f8 04       	addq   $0x4,-0x8(%rbp)
  600245:	8b 45 ec             	mov    -0x14(%rbp),%eax
  600248:	83 c0 01             	add    $0x1,%eax
  60024b:	48 98                	cltq   
  60024d:	48 8d 14 c5 00 00 00 	lea    0x0(,%rax,8),%rdx
  600254:	00 
  600255:	48 8d 05 24 11 80 00 	lea    0x801124(%rip),%rax        # e01380 <initcall_levels>
  60025c:	48 8b 04 02          	mov    (%rdx,%rax,1),%rax
  600260:	48 39 45 f8          	cmp    %rax,-0x8(%rbp)
  600264:	72 c6                	jb     60022c <do_initcall_level+0x29>
  600266:	90                   	nop
  600267:	c9                   	leaveq 
  600268:	c3                   	retq   

0000000000600269 <main>:
  600269:	55                   	push   %rbp
  60026a:	48 89 e5             	mov    %rsp,%rbp
  60026d:	48 83 ec 10          	sub    $0x10,%rsp
  600271:	89 7d fc             	mov    %edi,-0x4(%rbp)
  600274:	48 89 75 f0          	mov    %rsi,-0x10(%rbp)
  600278:	e8 75 10 80 00       	callq  e012f2 <do_list_addressable_things>
  60027d:	e8 1a 10 80 00       	callq  e0129c <do_pre_smp_initcalls>
  600282:	e8 a5 0f 80 00       	callq  e0122c <do_initcalls>
  600287:	b8 00 00 00 00       	mov    $0x0,%eax
  60028c:	c9                   	leaveq 
  60028d:	c3                   	retq   
  60028e:	66 90                	xchg   %ax,%ax

0000000000600290 <__libc_csu_init>:
  600290:	41 57                	push   %r15
  600292:	41 56                	push   %r14
  600294:	49 89 d7             	mov    %rdx,%r15
  600297:	41 55                	push   %r13
  600299:	41 54                	push   %r12
  60029b:	4c 8d 25 36 0b 40 00 	lea    0x400b36(%rip),%r12        # a00dd8 <__frame_dummy_init_array_entry>
  6002a2:	55                   	push   %rbp
  6002a3:	48 8d 2d 36 0b 40 00 	lea    0x400b36(%rip),%rbp        # a00de0 <__init_array_end>
  6002aa:	53                   	push   %rbx
  6002ab:	41 89 fd             	mov    %edi,%r13d
  6002ae:	49 89 f6             	mov    %rsi,%r14
  6002b1:	4c 29 e5             	sub    %r12,%rbp
  6002b4:	48 83 ec 08          	sub    $0x8,%rsp
  6002b8:	48 c1 fd 03          	sar    $0x3,%rbp
  6002bc:	e8 3f fd ff ff       	callq  600000 <_init>
  6002c1:	48 85 ed             	test   %rbp,%rbp
  6002c4:	74 20                	je     6002e6 <__libc_csu_init+0x56>
  6002c6:	31 db                	xor    %ebx,%ebx
  6002c8:	0f 1f 84 00 00 00 00 	nopl   0x0(%rax,%rax,1)
  6002cf:	00 
  6002d0:	4c 89 fa             	mov    %r15,%rdx
  6002d3:	4c 89 f6             	mov    %r14,%rsi
  6002d6:	44 89 ef             	mov    %r13d,%edi
  6002d9:	41 ff 14 dc          	callq  *(%r12,%rbx,8)
  6002dd:	48 83 c3 01          	add    $0x1,%rbx
  6002e1:	48 39 dd             	cmp    %rbx,%rbp
  6002e4:	75 ea                	jne    6002d0 <__libc_csu_init+0x40>
  6002e6:	48 83 c4 08          	add    $0x8,%rsp
  6002ea:	5b                   	pop    %rbx
  6002eb:	5d                   	pop    %rbp
  6002ec:	41 5c                	pop    %r12
  6002ee:	41 5d                	pop    %r13
  6002f0:	41 5e                	pop    %r14
  6002f2:	41 5f                	pop    %r15
  6002f4:	c3                   	retq   
  6002f5:	90                   	nop
  6002f6:	66 2e 0f 1f 84 00 00 	nopw   %cs:0x0(%rax,%rax,1)
  6002fd:	00 00 00 

0000000000600300 <__libc_csu_fini>:
  600300:	f3 c3                	repz retq 

Disassembly of section .fini:

0000000000600304 <_fini>:
  600304:	48 83 ec 08          	sub    $0x8,%rsp
  600308:	48 83 c4 08          	add    $0x8,%rsp
  60030c:	c3                   	retq   

Disassembly of section .discard.addressable:

0000000000e01038 <__discard_addressable_start>:
  e01038:	88 10                	mov    %dl,(%rax)
  e0103a:	e0 00                	loopne e0103c <__discard_addressable_start+0x4>
  e0103c:	00 00                	add    %al,(%rax)
	...

0000000000e01040 <__addressable_test_pure_init3>:
  e01040:	b2 10                	mov    $0x10,%dl
  e01042:	e0 00                	loopne e01044 <__addressable_test_pure_init3+0x4>
  e01044:	00 00                	add    %al,(%rax)
	...

0000000000e01048 <__addressable_test_core_init5>:
  e01048:	dc 10                	fcoml  (%rax)
  e0104a:	e0 00                	loopne e0104c <__addressable_test_core_init5+0x4>
  e0104c:	00 00                	add    %al,(%rax)
	...

0000000000e01050 <__addressable_test_postcore_init7>:
  e01050:	06                   	(bad)  
  e01051:	11 e0                	adc    %esp,%eax
  e01053:	00 00                	add    %al,(%rax)
  e01055:	00 00                	add    %al,(%rax)
	...

0000000000e01058 <__addressable_test_arch_init9>:
  e01058:	30 11                	xor    %dl,(%rcx)
  e0105a:	e0 00                	loopne e0105c <__addressable_test_arch_init9+0x4>
  e0105c:	00 00                	add    %al,(%rax)
	...

0000000000e01060 <__addressable_test_subsys_init11>:
  e01060:	5a                   	pop    %rdx
  e01061:	11 e0                	adc    %esp,%eax
  e01063:	00 00                	add    %al,(%rax)
  e01065:	00 00                	add    %al,(%rax)
	...

0000000000e01068 <__addressable_test_fs_init13>:
  e01068:	84 11                	test   %dl,(%rcx)
  e0106a:	e0 00                	loopne e0106c <__addressable_test_fs_init13+0x4>
  e0106c:	00 00                	add    %al,(%rax)
	...

0000000000e01070 <__addressable_test_device_init15>:
  e01070:	ae                   	scas   %es:(%rdi),%al
  e01071:	11 e0                	adc    %esp,%eax
  e01073:	00 00                	add    %al,(%rax)
  e01075:	00 00                	add    %al,(%rax)
	...

0000000000e01078 <__addressable_test_module_init17>:
  e01078:	d8 11                	fcoms  (%rcx)
  e0107a:	e0 00                	loopne e0107c <__addressable_test_module_init17+0x4>
  e0107c:	00 00                	add    %al,(%rax)
	...

0000000000e01080 <__addressable_test_late_init19>:
  e01080:	02 12                	add    (%rdx),%dl
  e01082:	e0 00                	loopne e01084 <__addressable_test_late_init19+0x4>
  e01084:	00 00                	add    %al,(%rax)
	...

Disassembly of section .init.text:

0000000000e01088 <test_early_init>:
  e01088:	55                   	push   %rbp
  e01089:	48 89 e5             	mov    %rsp,%rbp
  e0108c:	48 8d 15 6d f0 9f ff 	lea    -0x600f93(%rip),%rdx        # 800100 <__func__.2269>
  e01093:	48 8d 35 ee ff ff ff 	lea    -0x12(%rip),%rsi        # e01088 <test_early_init>
  e0109a:	48 8d 3d 9d ef 9f ff 	lea    -0x601063(%rip),%rdi        # 80003e <_IO_stdin_used+0x3e>
  e010a1:	b8 00 00 00 00       	mov    $0x0,%eax
  e010a6:	e8 85 ef 7f ff       	callq  600030 <printf@plt>
  e010ab:	b8 00 00 00 00       	mov    $0x0,%eax
  e010b0:	5d                   	pop    %rbp
  e010b1:	c3                   	retq   

0000000000e010b2 <test_pure_init>:
  e010b2:	55                   	push   %rbp
  e010b3:	48 89 e5             	mov    %rsp,%rbp
  e010b6:	48 8d 15 53 f0 9f ff 	lea    -0x600fad(%rip),%rdx        # 800110 <__func__.2274>
  e010bd:	48 8d 35 ee ff ff ff 	lea    -0x12(%rip),%rsi        # e010b2 <test_pure_init>
  e010c4:	48 8d 3d 73 ef 9f ff 	lea    -0x60108d(%rip),%rdi        # 80003e <_IO_stdin_used+0x3e>
  e010cb:	b8 00 00 00 00       	mov    $0x0,%eax
  e010d0:	e8 5b ef 7f ff       	callq  600030 <printf@plt>
  e010d5:	b8 00 00 00 00       	mov    $0x0,%eax
  e010da:	5d                   	pop    %rbp
  e010db:	c3                   	retq   

0000000000e010dc <test_core_init>:
  e010dc:	55                   	push   %rbp
  e010dd:	48 89 e5             	mov    %rsp,%rbp
  e010e0:	48 8d 15 39 f0 9f ff 	lea    -0x600fc7(%rip),%rdx        # 800120 <__func__.2279>
  e010e7:	48 8d 35 ee ff ff ff 	lea    -0x12(%rip),%rsi        # e010dc <test_core_init>
  e010ee:	48 8d 3d 49 ef 9f ff 	lea    -0x6010b7(%rip),%rdi        # 80003e <_IO_stdin_used+0x3e>
  e010f5:	b8 00 00 00 00       	mov    $0x0,%eax
  e010fa:	e8 31 ef 7f ff       	callq  600030 <printf@plt>
  e010ff:	b8 00 00 00 00       	mov    $0x0,%eax
  e01104:	5d                   	pop    %rbp
  e01105:	c3                   	retq   

0000000000e01106 <test_postcore_init>:
  e01106:	55                   	push   %rbp
  e01107:	48 89 e5             	mov    %rsp,%rbp
  e0110a:	48 8d 15 1f f0 9f ff 	lea    -0x600fe1(%rip),%rdx        # 800130 <__func__.2284>
  e01111:	48 8d 35 ee ff ff ff 	lea    -0x12(%rip),%rsi        # e01106 <test_postcore_init>
  e01118:	48 8d 3d 1f ef 9f ff 	lea    -0x6010e1(%rip),%rdi        # 80003e <_IO_stdin_used+0x3e>
  e0111f:	b8 00 00 00 00       	mov    $0x0,%eax
  e01124:	e8 07 ef 7f ff       	callq  600030 <printf@plt>
  e01129:	b8 00 00 00 00       	mov    $0x0,%eax
  e0112e:	5d                   	pop    %rbp
  e0112f:	c3                   	retq   

0000000000e01130 <test_arch_init>:
  e01130:	55                   	push   %rbp
  e01131:	48 89 e5             	mov    %rsp,%rbp
  e01134:	48 8d 15 0d f0 9f ff 	lea    -0x600ff3(%rip),%rdx        # 800148 <__func__.2289>
  e0113b:	48 8d 35 ee ff ff ff 	lea    -0x12(%rip),%rsi        # e01130 <test_arch_init>
  e01142:	48 8d 3d 10 ef 9f ff 	lea    -0x6010f0(%rip),%rdi        # 800059 <_IO_stdin_used+0x59>
  e01149:	b8 00 00 00 00       	mov    $0x0,%eax
  e0114e:	e8 dd ee 7f ff       	callq  600030 <printf@plt>
  e01153:	b8 00 00 00 00       	mov    $0x0,%eax
  e01158:	5d                   	pop    %rbp
  e01159:	c3                   	retq   

0000000000e0115a <test_subsys_init>:
  e0115a:	55                   	push   %rbp
  e0115b:	48 89 e5             	mov    %rsp,%rbp
  e0115e:	48 8d 15 fb ef 9f ff 	lea    -0x601005(%rip),%rdx        # 800160 <__func__.2294>
  e01165:	48 8d 35 ee ff ff ff 	lea    -0x12(%rip),%rsi        # e0115a <test_subsys_init>
  e0116c:	48 8d 3d e6 ee 9f ff 	lea    -0x60111a(%rip),%rdi        # 800059 <_IO_stdin_used+0x59>
  e01173:	b8 00 00 00 00       	mov    $0x0,%eax
  e01178:	e8 b3 ee 7f ff       	callq  600030 <printf@plt>
  e0117d:	b8 00 00 00 00       	mov    $0x0,%eax
  e01182:	5d                   	pop    %rbp
  e01183:	c3                   	retq   

0000000000e01184 <test_fs_init>:
  e01184:	55                   	push   %rbp
  e01185:	48 89 e5             	mov    %rsp,%rbp
  e01188:	48 8d 15 e9 ef 9f ff 	lea    -0x601017(%rip),%rdx        # 800178 <__func__.2299>
  e0118f:	48 8d 35 ee ff ff ff 	lea    -0x12(%rip),%rsi        # e01184 <test_fs_init>
  e01196:	48 8d 3d bc ee 9f ff 	lea    -0x601144(%rip),%rdi        # 800059 <_IO_stdin_used+0x59>
  e0119d:	b8 00 00 00 00       	mov    $0x0,%eax
  e011a2:	e8 89 ee 7f ff       	callq  600030 <printf@plt>
  e011a7:	b8 00 00 00 00       	mov    $0x0,%eax
  e011ac:	5d                   	pop    %rbp
  e011ad:	c3                   	retq   

0000000000e011ae <test_device_init>:
  e011ae:	55                   	push   %rbp
  e011af:	48 89 e5             	mov    %rsp,%rbp
  e011b2:	48 8d 15 d7 ef 9f ff 	lea    -0x601029(%rip),%rdx        # 800190 <__func__.2304>
  e011b9:	48 8d 35 ee ff ff ff 	lea    -0x12(%rip),%rsi        # e011ae <test_device_init>
  e011c0:	48 8d 3d 92 ee 9f ff 	lea    -0x60116e(%rip),%rdi        # 800059 <_IO_stdin_used+0x59>
  e011c7:	b8 00 00 00 00       	mov    $0x0,%eax
  e011cc:	e8 5f ee 7f ff       	callq  600030 <printf@plt>
  e011d1:	b8 00 00 00 00       	mov    $0x0,%eax
  e011d6:	5d                   	pop    %rbp
  e011d7:	c3                   	retq   

0000000000e011d8 <test_module_init>:
  e011d8:	55                   	push   %rbp
  e011d9:	48 89 e5             	mov    %rsp,%rbp
  e011dc:	48 8d 15 cd ef 9f ff 	lea    -0x601033(%rip),%rdx        # 8001b0 <__func__.2309>
  e011e3:	48 8d 35 ee ff ff ff 	lea    -0x12(%rip),%rsi        # e011d8 <test_module_init>
  e011ea:	48 8d 3d 4d ee 9f ff 	lea    -0x6011b3(%rip),%rdi        # 80003e <_IO_stdin_used+0x3e>
  e011f1:	b8 00 00 00 00       	mov    $0x0,%eax
  e011f6:	e8 35 ee 7f ff       	callq  600030 <printf@plt>
  e011fb:	b8 00 00 00 00       	mov    $0x0,%eax
  e01200:	5d                   	pop    %rbp
  e01201:	c3                   	retq   

0000000000e01202 <test_late_init>:
  e01202:	55                   	push   %rbp
  e01203:	48 89 e5             	mov    %rsp,%rbp
  e01206:	48 8d 15 bb ef 9f ff 	lea    -0x601045(%rip),%rdx        # 8001c8 <__func__.2314>
  e0120d:	48 8d 35 ee ff ff ff 	lea    -0x12(%rip),%rsi        # e01202 <test_late_init>
  e01214:	48 8d 3d 23 ee 9f ff 	lea    -0x6011dd(%rip),%rdi        # 80003e <_IO_stdin_used+0x3e>
  e0121b:	b8 00 00 00 00       	mov    $0x0,%eax
  e01220:	e8 0b ee 7f ff       	callq  600030 <printf@plt>
  e01225:	b8 00 00 00 00       	mov    $0x0,%eax
  e0122a:	5d                   	pop    %rbp
  e0122b:	c3                   	retq   

0000000000e0122c <do_initcalls>:
  e0122c:	55                   	push   %rbp
  e0122d:	48 89 e5             	mov    %rsp,%rbp
  e01230:	48 83 ec 10          	sub    $0x10,%rsp
  e01234:	c7 45 fc 00 00 00 00 	movl   $0x0,-0x4(%rbp)
  e0123b:	eb 54                	jmp    e01291 <do_initcalls+0x65>
  e0123d:	8b 45 fc             	mov    -0x4(%rbp),%eax
  e01240:	48 98                	cltq   
  e01242:	48 8d 14 c5 00 00 00 	lea    0x0(,%rax,8),%rdx
  e01249:	00 
  e0124a:	48 8d 05 2f 01 00 00 	lea    0x12f(%rip),%rax        # e01380 <initcall_levels>
  e01251:	48 8b 0c 02          	mov    (%rdx,%rax,1),%rcx
  e01255:	8b 45 fc             	mov    -0x4(%rbp),%eax
  e01258:	48 98                	cltq   
  e0125a:	48 8d 14 c5 00 00 00 	lea    0x0(,%rax,8),%rdx
  e01261:	00 
  e01262:	48 8d 05 77 01 00 00 	lea    0x177(%rip),%rax        # e013e0 <initcall_level_names>
  e01269:	48 8b 14 02          	mov    (%rdx,%rax,1),%rdx
  e0126d:	8b 45 fc             	mov    -0x4(%rbp),%eax
  e01270:	89 c6                	mov    %eax,%esi
  e01272:	48 8d 3d 17 ee 9f ff 	lea    -0x6011e9(%rip),%rdi        # 800090 <_IO_stdin_used+0x90>
  e01279:	b8 00 00 00 00       	mov    $0x0,%eax
  e0127e:	e8 ad ed 7f ff       	callq  600030 <printf@plt>
  e01283:	8b 45 fc             	mov    -0x4(%rbp),%eax
  e01286:	89 c7                	mov    %eax,%edi
  e01288:	e8 76 ef 7f ff       	callq  600203 <do_initcall_level>
  e0128d:	83 45 fc 01          	addl   $0x1,-0x4(%rbp)
  e01291:	8b 45 fc             	mov    -0x4(%rbp),%eax
  e01294:	83 f8 07             	cmp    $0x7,%eax
  e01297:	76 a4                	jbe    e0123d <do_initcalls+0x11>
  e01299:	90                   	nop
  e0129a:	c9                   	leaveq 
  e0129b:	c3                   	retq   

0000000000e0129c <do_pre_smp_initcalls>:
  e0129c:	55                   	push   %rbp
  e0129d:	48 89 e5             	mov    %rsp,%rbp
  e012a0:	48 83 ec 10          	sub    $0x10,%rsp
  e012a4:	48 8d 35 75 01 00 00 	lea    0x175(%rip),%rsi        # e01420 <__initcall_start>
  e012ab:	48 8d 3d eb ed 9f ff 	lea    -0x601215(%rip),%rdi        # 80009d <_IO_stdin_used+0x9d>
  e012b2:	b8 00 00 00 00       	mov    $0x0,%eax
  e012b7:	e8 74 ed 7f ff       	callq  600030 <printf@plt>
  e012bc:	48 8d 05 5d 01 00 00 	lea    0x15d(%rip),%rax        # e01420 <__initcall_start>
  e012c3:	48 89 45 f8          	mov    %rax,-0x8(%rbp)
  e012c7:	eb 19                	jmp    e012e2 <do_pre_smp_initcalls+0x46>
  e012c9:	48 8b 45 f8          	mov    -0x8(%rbp),%rax
  e012cd:	48 89 c7             	mov    %rax,%rdi
  e012d0:	e8 d4 ee 7f ff       	callq  6001a9 <initcall_from_entry>
  e012d5:	48 89 c7             	mov    %rax,%rdi
  e012d8:	e8 f5 ee 7f ff       	callq  6001d2 <do_one_initcall>
  e012dd:	48 83 45 f8 04       	addq   $0x4,-0x8(%rbp)
  e012e2:	48 8d 05 3b 01 00 00 	lea    0x13b(%rip),%rax        # e01424 <__initcall0_start>
  e012e9:	48 39 45 f8          	cmp    %rax,-0x8(%rbp)
  e012ed:	72 da                	jb     e012c9 <do_pre_smp_initcalls+0x2d>
  e012ef:	90                   	nop
  e012f0:	c9                   	leaveq 
  e012f1:	c3                   	retq   

0000000000e012f2 <do_list_addressable_things>:
  e012f2:	55                   	push   %rbp
  e012f3:	48 89 e5             	mov    %rsp,%rbp
  e012f6:	48 83 ec 10          	sub    $0x10,%rsp
  e012fa:	48 8d 35 37 fd ff ff 	lea    -0x2c9(%rip),%rsi        # e01038 <__discard_addressable_start>
  e01301:	48 8d 3d a0 ed 9f ff 	lea    -0x601260(%rip),%rdi        # 8000a8 <_IO_stdin_used+0xa8>
  e01308:	b8 00 00 00 00       	mov    $0x0,%eax
  e0130d:	e8 1e ed 7f ff       	callq  600030 <printf@plt>
  e01312:	48 8d 05 1f fd ff ff 	lea    -0x2e1(%rip),%rax        # e01038 <__discard_addressable_start>
  e01319:	48 89 45 f8          	mov    %rax,-0x8(%rbp)
  e0131d:	eb 1d                	jmp    e0133c <do_list_addressable_things+0x4a>
  e0131f:	48 8b 45 f8          	mov    -0x8(%rbp),%rax
  e01323:	48 89 c6             	mov    %rax,%rsi
  e01326:	48 8d 3d 9c ed 9f ff 	lea    -0x601264(%rip),%rdi        # 8000c9 <_IO_stdin_used+0xc9>
  e0132d:	b8 00 00 00 00       	mov    $0x0,%eax
  e01332:	e8 f9 ec 7f ff       	callq  600030 <printf@plt>
  e01337:	48 83 45 f8 04       	addq   $0x4,-0x8(%rbp)
  e0133c:	48 8d 05 45 fd ff ff 	lea    -0x2bb(%rip),%rax        # e01088 <test_early_init>
  e01343:	48 39 45 f8          	cmp    %rax,-0x8(%rbp)
  e01347:	72 d6                	jb     e0131f <do_list_addressable_things+0x2d>
  e01349:	48 8d 35 38 fd ff ff 	lea    -0x2c8(%rip),%rsi        # e01088 <test_early_init>
  e01350:	48 8d 3d 81 ed 9f ff 	lea    -0x60127f(%rip),%rdi        # 8000d8 <_IO_stdin_used+0xd8>
  e01357:	b8 00 00 00 00       	mov    $0x0,%eax
  e0135c:	e8 cf ec 7f ff       	callq  600030 <printf@plt>
  e01361:	90                   	nop
  e01362:	c9                   	leaveq 
  e01363:	c3                   	retq   

Disassembly of section .init.data:

0000000000e01380 <initcall_levels>:
  e01380:	24 14                	and    $0x14,%al
  e01382:	e0 00                	loopne e01384 <initcall_levels+0x4>
  e01384:	00 00                	add    %al,(%rax)
  e01386:	00 00                	add    %al,(%rax)
  e01388:	28 14 e0             	sub    %dl,(%rax,%riz,8)
  e0138b:	00 00                	add    %al,(%rax)
  e0138d:	00 00                	add    %al,(%rax)
  e0138f:	00 2c 14             	add    %ch,(%rsp,%rdx,1)
  e01392:	e0 00                	loopne e01394 <initcall_levels+0x14>
  e01394:	00 00                	add    %al,(%rax)
  e01396:	00 00                	add    %al,(%rax)
  e01398:	30 14 e0             	xor    %dl,(%rax,%riz,8)
  e0139b:	00 00                	add    %al,(%rax)
  e0139d:	00 00                	add    %al,(%rax)
  e0139f:	00 34 14             	add    %dh,(%rsp,%rdx,1)
  e013a2:	e0 00                	loopne e013a4 <initcall_levels+0x24>
  e013a4:	00 00                	add    %al,(%rax)
  e013a6:	00 00                	add    %al,(%rax)
  e013a8:	38 14 e0             	cmp    %dl,(%rax,%riz,8)
  e013ab:	00 00                	add    %al,(%rax)
  e013ad:	00 00                	add    %al,(%rax)
  e013af:	00 3c 14             	add    %bh,(%rsp,%rdx,1)
  e013b2:	e0 00                	loopne e013b4 <initcall_levels+0x34>
  e013b4:	00 00                	add    %al,(%rax)
  e013b6:	00 00                	add    %al,(%rax)
  e013b8:	44 14 e0             	rex.R adc $0xe0,%al
  e013bb:	00 00                	add    %al,(%rax)
  e013bd:	00 00                	add    %al,(%rax)
  e013bf:	00 48 14             	add    %cl,0x14(%rax)
  e013c2:	e0 00                	loopne e013c4 <initcall_levels+0x44>
	...

0000000000e013e0 <initcall_level_names>:
  e013e0:	10 00                	adc    %al,(%rax)
  e013e2:	80 00 00             	addb   $0x0,(%rax)
  e013e5:	00 00                	add    %al,(%rax)
  e013e7:	00 15 00 80 00 00    	add    %dl,0x8000(%rip)        # e093ed <__initcall_end+0x7fa5>
  e013ed:	00 00                	add    %al,(%rax)
  e013ef:	00 1a                	add    %bl,(%rdx)
  e013f1:	00 80 00 00 00 00    	add    %al,0x0(%rax)
  e013f7:	00 23                	add    %ah,(%rbx)
  e013f9:	00 80 00 00 00 00    	add    %al,0x0(%rax)
  e013ff:	00 28                	add    %ch,(%rax)
  e01401:	00 80 00 00 00 00    	add    %al,0x0(%rax)
  e01407:	00 2f                	add    %ch,(%rdi)
  e01409:	00 80 00 00 00 00    	add    %al,0x0(%rax)
  e0140f:	00 32                	add    %dh,(%rdx)
  e01411:	00 80 00 00 00 00    	add    %al,0x0(%rax)
  e01417:	00 39                	add    %bh,(%rcx)
  e01419:	00 80 00 00 00 00    	add    %al,0x0(%rax)
	...

0000000000e01420 <__initcall_start>:
  e01420:	68 fc ff ff        	pushq  $0xffffffff8efffffc

0000000000e01424 <__initcall0_start>:
  e01424:	8e fc                	mov    %esp,%?
  e01426:	ff                   	(bad)  
  e01427:	ff       	pushq  -0x3250001(%rsp,%rdi,8)

0000000000e01428 <__initcall1_start>:
  e01428:	b4 fc                	mov    $0xfc,%ah
  e0142a:	ff                   	(bad)  
  e0142b:	ff                   	(bad)  

0000000000e0142c <__initcall2_start>:
  e0142c:	da fc                	(bad)  
  e0142e:	ff                   	(bad)  
  e0142f:	ff                 	incl   (%rax)

0000000000e01430 <__initcall3_start>:
  e01430:	00 fd                	add    %bh,%ch
  e01432:	ff                   	(bad)  
  e01433:	ff                 	jmpq   *(%rsi)

0000000000e01434 <__initcall4_start>:
  e01434:	26 fd                	es std 
  e01436:	ff                   	(bad)  
  e01437:	ff             	decl   -0x1(%rbp,%rdi,8)

0000000000e01438 <__initcall5_start>:
  e01438:	4c fd                	rex.WR std 
  e0143a:	ff                   	(bad)  
  e0143b:	ff               	pushq  -0x3(%rdx)

0000000000e0143c <__initcall6_start>:
  e0143c:	72 fd                	jb     e0143b <__initcall5_start+0x3>
  e0143e:	ff                   	(bad)  
  e0143f:	ff         	lcall  *-0x41000003(%rax)

0000000000e01440 <__initcall__kmod_test__16_338_test_module_init6>:
  e01440:	98                   	cwtl   
  e01441:	fd                   	std    
  e01442:	ff                   	(bad)  
  e01443:	ff                   	(bad)  

0000000000e01444 <__initcall7_start>:
  e01444:	be                   	.byte 0xbe
  e01445:	fd                   	std    
  e01446:	ff                   	(bad)  
  e01447:	ff                   	.byte 0xff
